
GccApplication1.elf:     file format elf32-avr

Sections:
Idx Name          Size      VMA       LMA       File off  Algn
  0 .data         0000001c  00800100  000001a0  00000214  2**0
                  CONTENTS, ALLOC, LOAD, DATA
  1 .text         000001a0  00000000  00000000  00000074  2**1
                  CONTENTS, ALLOC, LOAD, READONLY, CODE
  2 .comment      00000030  00000000  00000000  00000230  2**0
                  CONTENTS, READONLY
  3 .note.gnu.avr.deviceinfo 00000040  00000000  00000000  00000260  2**2
                  CONTENTS, READONLY
  4 .debug_info   00000b70  00000000  00000000  000002a0  2**0
                  CONTENTS, READONLY, DEBUGGING
  5 .debug_abbrev 00000ad2  00000000  00000000  00000e10  2**0
                  CONTENTS, READONLY, DEBUGGING
  6 .debug_line   0000017b  00000000  00000000  000018e2  2**0
                  CONTENTS, READONLY, DEBUGGING
  7 .debug_str    000003f7  00000000  00000000  00001a5d  2**0
                  CONTENTS, READONLY, DEBUGGING

Disassembly of section .text:

00000000 <__vectors>:
   0:	4b c0       	rjmp	.+150    	; 0x98 <__ctors_end>
   2:	00 00       	nop
   4:	5e c0       	rjmp	.+188    	; 0xc2 <__bad_interrupt>
   6:	00 00       	nop
   8:	5c c0       	rjmp	.+184    	; 0xc2 <__bad_interrupt>
   a:	00 00       	nop
   c:	5a c0       	rjmp	.+180    	; 0xc2 <__bad_interrupt>
   e:	00 00       	nop
  10:	58 c0       	rjmp	.+176    	; 0xc2 <__bad_interrupt>
  12:	00 00       	nop
  14:	56 c0       	rjmp	.+172    	; 0xc2 <__bad_interrupt>
  16:	00 00       	nop
  18:	54 c0       	rjmp	.+168    	; 0xc2 <__bad_interrupt>
  1a:	00 00       	nop
  1c:	52 c0       	rjmp	.+164    	; 0xc2 <__bad_interrupt>
  1e:	00 00       	nop
  20:	50 c0       	rjmp	.+160    	; 0xc2 <__bad_interrupt>
  22:	00 00       	nop
  24:	4e c0       	rjmp	.+156    	; 0xc2 <__bad_interrupt>
  26:	00 00       	nop
  28:	4c c0       	rjmp	.+152    	; 0xc2 <__bad_interrupt>
  2a:	00 00       	nop
  2c:	4a c0       	rjmp	.+148    	; 0xc2 <__bad_interrupt>
  2e:	00 00       	nop
  30:	48 c0       	rjmp	.+144    	; 0xc2 <__bad_interrupt>
  32:	00 00       	nop
  34:	46 c0       	rjmp	.+140    	; 0xc2 <__bad_interrupt>
  36:	00 00       	nop
  38:	44 c0       	rjmp	.+136    	; 0xc2 <__bad_interrupt>
  3a:	00 00       	nop
  3c:	42 c0       	rjmp	.+132    	; 0xc2 <__bad_interrupt>
  3e:	00 00       	nop
  40:	40 c0       	rjmp	.+128    	; 0xc2 <__bad_interrupt>
  42:	00 00       	nop
  44:	3e c0       	rjmp	.+124    	; 0xc2 <__bad_interrupt>
  46:	00 00       	nop
  48:	3c c0       	rjmp	.+120    	; 0xc2 <__bad_interrupt>
  4a:	00 00       	nop
  4c:	3a c0       	rjmp	.+116    	; 0xc2 <__bad_interrupt>
  4e:	00 00       	nop
  50:	38 c0       	rjmp	.+112    	; 0xc2 <__bad_interrupt>
  52:	00 00       	nop
  54:	36 c0       	rjmp	.+108    	; 0xc2 <__bad_interrupt>
  56:	00 00       	nop
  58:	34 c0       	rjmp	.+104    	; 0xc2 <__bad_interrupt>
  5a:	00 00       	nop
  5c:	32 c0       	rjmp	.+100    	; 0xc2 <__bad_interrupt>
  5e:	00 00       	nop
  60:	30 c0       	rjmp	.+96     	; 0xc2 <__bad_interrupt>
  62:	00 00       	nop
  64:	2e c0       	rjmp	.+92     	; 0xc2 <__bad_interrupt>
  66:	00 00       	nop
  68:	2c c0       	rjmp	.+88     	; 0xc2 <__bad_interrupt>
  6a:	00 00       	nop
  6c:	2a c0       	rjmp	.+84     	; 0xc2 <__bad_interrupt>
  6e:	00 00       	nop
  70:	28 c0       	rjmp	.+80     	; 0xc2 <__bad_interrupt>
  72:	00 00       	nop
  74:	26 c0       	rjmp	.+76     	; 0xc2 <__bad_interrupt>
  76:	00 00       	nop
  78:	24 c0       	rjmp	.+72     	; 0xc2 <__bad_interrupt>
  7a:	00 00       	nop
  7c:	22 c0       	rjmp	.+68     	; 0xc2 <__bad_interrupt>
  7e:	00 00       	nop
  80:	20 c0       	rjmp	.+64     	; 0xc2 <__bad_interrupt>
  82:	00 00       	nop
  84:	1e c0       	rjmp	.+60     	; 0xc2 <__bad_interrupt>
  86:	00 00       	nop
  88:	1c c0       	rjmp	.+56     	; 0xc2 <__bad_interrupt>
  8a:	00 00       	nop
  8c:	1a c0       	rjmp	.+52     	; 0xc2 <__bad_interrupt>
  8e:	00 00       	nop
  90:	18 c0       	rjmp	.+48     	; 0xc2 <__bad_interrupt>
  92:	00 00       	nop
  94:	16 c0       	rjmp	.+44     	; 0xc2 <__bad_interrupt>
	...

00000098 <__ctors_end>:
  98:	11 24       	eor	r1, r1
  9a:	1f be       	out	0x3f, r1	; 63
  9c:	cf ef       	ldi	r28, 0xFF	; 255
  9e:	d0 e2       	ldi	r29, 0x20	; 32
  a0:	de bf       	out	0x3e, r29	; 62
  a2:	cd bf       	out	0x3d, r28	; 61

000000a4 <__do_copy_data>:
  a4:	11 e0       	ldi	r17, 0x01	; 1
  a6:	a0 e0       	ldi	r26, 0x00	; 0
  a8:	b1 e0       	ldi	r27, 0x01	; 1
  aa:	e0 ea       	ldi	r30, 0xA0	; 160
  ac:	f1 e0       	ldi	r31, 0x01	; 1
  ae:	00 e0       	ldi	r16, 0x00	; 0
  b0:	0b bf       	out	0x3b, r16	; 59
  b2:	02 c0       	rjmp	.+4      	; 0xb8 <__do_copy_data+0x14>
  b4:	07 90       	elpm	r0, Z+
  b6:	0d 92       	st	X+, r0
  b8:	ac 31       	cpi	r26, 0x1C	; 28
  ba:	b1 07       	cpc	r27, r17
  bc:	d9 f7       	brne	.-10     	; 0xb4 <__do_copy_data+0x10>
  be:	02 d0       	rcall	.+4      	; 0xc4 <main>
  c0:	6d c0       	rjmp	.+218    	; 0x19c <_exit>

000000c2 <__bad_interrupt>:
  c2:	9e cf       	rjmp	.-196    	; 0x0 <__vectors>

000000c4 <main>:
  c4:	cf 93       	push	r28
  c6:	df 93       	push	r29
  c8:	cd b7       	in	r28, 0x3d	; 61
  ca:	de b7       	in	r29, 0x3e	; 62
  cc:	6b 97       	sbiw	r28, 0x1b	; 27
  ce:	0f b6       	in	r0, 0x3f	; 63
  d0:	f8 94       	cli
  d2:	de bf       	out	0x3e, r29	; 62
  d4:	0f be       	out	0x3f, r0	; 63
  d6:	cd bf       	out	0x3d, r28	; 61
  d8:	8b e1       	ldi	r24, 0x1B	; 27
  da:	e0 e0       	ldi	r30, 0x00	; 0
  dc:	f1 e0       	ldi	r31, 0x01	; 1
  de:	de 01       	movw	r26, r28
  e0:	11 96       	adiw	r26, 0x01	; 1
  e2:	01 90       	ld	r0, Z+
  e4:	0d 92       	st	X+, r0
  e6:	8a 95       	dec	r24
  e8:	e1 f7       	brne	.-8      	; 0xe2 <main+0x1e>
  ea:	84 b7       	in	r24, 0x34	; 52
  ec:	87 7f       	andi	r24, 0xF7	; 247
  ee:	84 bf       	out	0x34, r24	; 52
  f0:	0f b6       	in	r0, 0x3f	; 63
  f2:	f8 94       	cli
  f4:	a8 95       	wdr
  f6:	80 91 60 00 	lds	r24, 0x0060	; 0x800060 <__TEXT_REGION_LENGTH__+0x7e0060>
  fa:	88 61       	ori	r24, 0x18	; 24
  fc:	80 93 60 00 	sts	0x0060, r24	; 0x800060 <__TEXT_REGION_LENGTH__+0x7e0060>
 100:	10 92 60 00 	sts	0x0060, r1	; 0x800060 <__TEXT_REGION_LENGTH__+0x7e0060>
 104:	0f be       	out	0x3f, r0	; 63
 106:	82 9a       	sbi	0x10, 2	; 16
 108:	80 e8       	ldi	r24, 0x80	; 128
 10a:	80 93 61 00 	sts	0x0061, r24	; 0x800061 <__TEXT_REGION_LENGTH__+0x7e0061>
 10e:	10 92 61 00 	sts	0x0061, r1	; 0x800061 <__TEXT_REGION_LENGTH__+0x7e0061>
 112:	80 91 c9 00 	lds	r24, 0x00C9	; 0x8000c9 <__TEXT_REGION_LENGTH__+0x7e00c9>
 116:	88 60       	ori	r24, 0x08	; 8
 118:	80 93 c9 00 	sts	0x00C9, r24	; 0x8000c9 <__TEXT_REGION_LENGTH__+0x7e00c9>
 11c:	83 e3       	ldi	r24, 0x33	; 51
 11e:	80 93 cc 00 	sts	0x00CC, r24	; 0x8000cc <__TEXT_REGION_LENGTH__+0x7e00cc>
 122:	10 92 cd 00 	sts	0x00CD, r1	; 0x8000cd <__TEXT_REGION_LENGTH__+0x7e00cd>
 126:	86 e0       	ldi	r24, 0x06	; 6
 128:	80 93 ca 00 	sts	0x00CA, r24	; 0x8000ca <__TEXT_REGION_LENGTH__+0x7e00ca>
 12c:	20 e0       	ldi	r18, 0x00	; 0
 12e:	30 e0       	ldi	r19, 0x00	; 0
 130:	44 e0       	ldi	r20, 0x04	; 4
 132:	0a e1       	ldi	r16, 0x1A	; 26
 134:	10 e0       	ldi	r17, 0x00	; 0
 136:	81 b3       	in	r24, 0x11	; 17
 138:	84 27       	eor	r24, r20
 13a:	81 bb       	out	0x11, r24	; 17
 13c:	5f ef       	ldi	r21, 0xFF	; 255
 13e:	81 ee       	ldi	r24, 0xE1	; 225
 140:	94 e0       	ldi	r25, 0x04	; 4
 142:	51 50       	subi	r21, 0x01	; 1
 144:	80 40       	sbci	r24, 0x00	; 0
 146:	90 40       	sbci	r25, 0x00	; 0
 148:	e1 f7       	brne	.-8      	; 0x142 <main+0x7e>
 14a:	00 c0       	rjmp	.+0      	; 0x14c <main+0x88>
 14c:	00 00       	nop
 14e:	80 91 c8 00 	lds	r24, 0x00C8	; 0x8000c8 <__TEXT_REGION_LENGTH__+0x7e00c8>
 152:	85 ff       	sbrs	r24, 5
 154:	fc cf       	rjmp	.-8      	; 0x14e <main+0x8a>
 156:	c9 01       	movw	r24, r18
 158:	b8 01       	movw	r22, r16
 15a:	0c d0       	rcall	.+24     	; 0x174 <__udivmodhi4>
 15c:	e1 e0       	ldi	r30, 0x01	; 1
 15e:	f0 e0       	ldi	r31, 0x00	; 0
 160:	ec 0f       	add	r30, r28
 162:	fd 1f       	adc	r31, r29
 164:	e8 0f       	add	r30, r24
 166:	f9 1f       	adc	r31, r25
 168:	80 81       	ld	r24, Z
 16a:	80 93 ce 00 	sts	0x00CE, r24	; 0x8000ce <__TEXT_REGION_LENGTH__+0x7e00ce>
 16e:	2f 5f       	subi	r18, 0xFF	; 255
 170:	3f 4f       	sbci	r19, 0xFF	; 255
 172:	e1 cf       	rjmp	.-62     	; 0x136 <main+0x72>

00000174 <__udivmodhi4>:
 174:	aa 1b       	sub	r26, r26
 176:	bb 1b       	sub	r27, r27
 178:	51 e1       	ldi	r21, 0x11	; 17
 17a:	07 c0       	rjmp	.+14     	; 0x18a <__udivmodhi4_ep>

0000017c <__udivmodhi4_loop>:
 17c:	aa 1f       	adc	r26, r26
 17e:	bb 1f       	adc	r27, r27
 180:	a6 17       	cp	r26, r22
 182:	b7 07       	cpc	r27, r23
 184:	10 f0       	brcs	.+4      	; 0x18a <__udivmodhi4_ep>
 186:	a6 1b       	sub	r26, r22
 188:	b7 0b       	sbc	r27, r23

0000018a <__udivmodhi4_ep>:
 18a:	88 1f       	adc	r24, r24
 18c:	99 1f       	adc	r25, r25
 18e:	5a 95       	dec	r21
 190:	a9 f7       	brne	.-22     	; 0x17c <__udivmodhi4_loop>
 192:	80 95       	com	r24
 194:	90 95       	com	r25
 196:	bc 01       	movw	r22, r24
 198:	cd 01       	movw	r24, r26
 19a:	08 95       	ret

0000019c <_exit>:
 19c:	f8 94       	cli

0000019e <__stop_program>:
 19e:	ff cf       	rjmp	.-2      	; 0x19e <__stop_program>
